target datalayout = "e-m:e-p270:32:32-p271:32:32-p272:64:64-i64:64-i128:128-f80:128-n8:16:32:64-S128"
target triple = "x86_64-pc-linux-gnu"

%"struct.cv::utils::trace::details::Region::LocationStaticStorage" = type { ptr, ptr, ptr, i32, i32 }
%"class.cv::utils::trace::details::Region" = type <{ ptr, i32, [4 x i8] }>
%union.Cv64suf = type { i64 }

@_ZZN2cv3hal12cpu_baseline6exp64fEPKdPdiE25__cv_trace_location_fn627 = internal constant %"struct.cv::utils::trace::details::Region::LocationStaticStorage" { ptr @_ZZN2cv3hal12cpu_baseline6exp64fEPKdPdiE31__cv_trace_location_extra_fn627, ptr @.str.13, ptr @.str.1, i32 627, i32 1 }, align 8

; Function Attrs: alwaysinline mustprogress nounwind uwtable
define internal noundef i32 @_ZL14_mm_cvtsd_si32Dv2_d(<2 x double> noundef %0) #11 {
  %2 = alloca <2 x double>, align 16
  store <2 x double> %0, ptr %2, align 16, !tbaa !45
  %3 = load <2 x double>, ptr %2, align 16, !tbaa !45
  %4 = call i32 @llvm.x86.sse2.cvtsd2si(<2 x double> %3)
  ret i32 %4
}

; Function Attrs: alwaysinline mustprogress nounwind uwtable
define internal noundef <2 x double> @_ZL10_mm_set_sdd(double noundef %0) #11 {
  %2 = alloca double, align 8
  %3 = alloca <2 x double>, align 16
  store double %0, ptr %2, align 8, !tbaa !25
  %4 = load double, ptr %2, align 8, !tbaa !25
  %5 = insertelement <2 x double> poison, double %4, i32 0
  %6 = insertelement <2 x double> %5, double 0.000000e+00, i32 1
  store <2 x double> %6, ptr %3, align 16, !tbaa !45
  %7 = load <2 x double>, ptr %3, align 16, !tbaa !45
  ret <2 x double> %7
}

; Function Attrs: inlinehint mustprogress uwtable
define internal noundef i32 @_ZL7cvRoundd(double noundef %0) #10 {
  %2 = alloca double, align 8
  %3 = alloca <2 x double>, align 16
  store double %0, ptr %2, align 8, !tbaa !25
  call void @llvm.lifetime.start.p0(i64 16, ptr %3) #14
  %4 = load double, ptr %2, align 8, !tbaa !25
  %5 = call noundef <2 x double> @_ZL10_mm_set_sdd(double noundef %4)
  store <2 x double> %5, ptr %3, align 16, !tbaa !45
  %6 = load <2 x double>, ptr %3, align 16, !tbaa !45
  %7 = call noundef i32 @_ZL14_mm_cvtsd_si32Dv2_d(<2 x double> noundef %6)
  call void @llvm.lifetime.end.p0(i64 16, ptr %3) #14
  ret i32 %7
}

; Function Attrs: inlinehint mustprogress uwtable
define internal noundef i32 @_ZN2cvL13saturate_castIiEET_d(double noundef %0) #6 {
  %2 = alloca double, align 8
  store double %0, ptr %2, align 8, !tbaa !25
  %3 = load double, ptr %2, align 8, !tbaa !25
  %4 = call noundef i32 @_ZL7cvRoundd(double noundef %3)
  ret i32 %4
}

; Function Attrs: inlinehint mustprogress nounwind uwtable
define linkonce_odr noundef nonnull align 8 dereferenceable(8) ptr @_ZSt3minIdERKT_S2_S2_(ptr noundef nonnull align 8 dereferenceable(8) %0, ptr noundef nonnull align 8 dereferenceable(8) %1) #3 comdat {
  %3 = alloca ptr, align 8
  %4 = alloca ptr, align 8
  %5 = alloca ptr, align 8
  store ptr %0, ptr %4, align 8, !tbaa !23
  store ptr %1, ptr %5, align 8, !tbaa !23
  %6 = load ptr, ptr %5, align 8, !tbaa !23
  %7 = load double, ptr %6, align 8, !tbaa !25
  %8 = load ptr, ptr %4, align 8, !tbaa !23
  %9 = load double, ptr %8, align 8, !tbaa !25
  %10 = fcmp olt double %7, %9
  br i1 %10, label %11, label %13

11:                                               ; preds = %2
  %12 = load ptr, ptr %5, align 8, !tbaa !23
  store ptr %12, ptr %3, align 8
  br label %15

13:                                               ; preds = %2
  %14 = load ptr, ptr %4, align 8, !tbaa !23
  store ptr %14, ptr %3, align 8
  br label %15

15:                                               ; preds = %13, %11
  %16 = load ptr, ptr %3, align 8
  ret ptr %16
}

; Function Attrs: inlinehint mustprogress nounwind uwtable
define linkonce_odr noundef nonnull align 8 dereferenceable(8) ptr @_ZSt3maxIdERKT_S2_S2_(ptr noundef nonnull align 8 dereferenceable(8) %0, ptr noundef nonnull align 8 dereferenceable(8) %1) #3 comdat {
  %3 = alloca ptr, align 8
  %4 = alloca ptr, align 8
  %5 = alloca ptr, align 8
  store ptr %0, ptr %4, align 8, !tbaa !23
  store ptr %1, ptr %5, align 8, !tbaa !23
  %6 = load ptr, ptr %4, align 8, !tbaa !23
  %7 = load double, ptr %6, align 8, !tbaa !25
  %8 = load ptr, ptr %5, align 8, !tbaa !23
  %9 = load double, ptr %8, align 8, !tbaa !25
  %10 = fcmp olt double %7, %9
  br i1 %10, label %11, label %13

11:                                               ; preds = %2
  %12 = load ptr, ptr %5, align 8, !tbaa !23
  store ptr %12, ptr %3, align 8
  br label %15

13:                                               ; preds = %2
  %14 = load ptr, ptr %4, align 8, !tbaa !23
  store ptr %14, ptr %3, align 8
  br label %15

15:                                               ; preds = %13, %11
  %16 = load ptr, ptr %3, align 8
  ret ptr %16
}

; Function Attrs: mustprogress uwtable
define hidden void @_ZN2cv3hal12cpu_baseline6exp64fEPKdPdi(ptr noundef %0, ptr noundef %1, i32 noundef %2) #0 personality ptr @__gxx_personality_v0 {
  %4 = alloca ptr, align 8
  %5 = alloca ptr, align 8
  %6 = alloca i32, align 4
  %7 = alloca %"class.cv::utils::trace::details::Region", align 8
  %8 = alloca ptr, align 8
  %9 = alloca ptr, align 8
  %10 = alloca i32, align 4
  %11 = alloca double, align 8
  %12 = alloca double, align 8
  %13 = alloca double, align 8
  %14 = alloca double, align 8
  %15 = alloca double, align 8
  %16 = alloca double, align 8
  %17 = alloca i32, align 4
  %18 = alloca ptr, align 8
  %19 = alloca double, align 8
  %20 = alloca double, align 8
  %21 = alloca double, align 8
  %22 = alloca %union.Cv64suf, align 8
  %23 = alloca i32, align 4
  %24 = alloca i32, align 4
  store ptr %0, ptr %4, align 8, !tbaa !23
  store ptr %1, ptr %5, align 8, !tbaa !23
  store i32 %2, ptr %6, align 4, !tbaa !8
  call void @llvm.lifetime.start.p0(i64 16, ptr %7) #14
  call void @_ZN2cv5utils5trace7details6RegionC1ERKNS3_21LocationStaticStorageE(ptr noundef nonnull align 8 dereferenceable(12) %7, ptr noundef nonnull align 8 dereferenceable(32) @_ZZN2cv3hal12cpu_baseline6exp64fEPKdPdiE25__cv_trace_location_fn627)
  call void @llvm.lifetime.start.p0(i64 8, ptr %8) #14
  %25 = invoke noundef ptr @_ZN2cv7details12getExpTab64fEv()
          to label %26 unwind label %96

26:                                               ; preds = %3
  store ptr %25, ptr %8, align 8, !tbaa !23
  call void @llvm.lifetime.start.p0(i64 8, ptr %11) #14
  store double 0x4059DA2747AF5C7E, ptr %11, align 8, !tbaa !25
  call void @llvm.lifetime.start.p0(i64 8, ptr %12) #14
  store double 0x4051EB5AB9AE5E70, ptr %12, align 8, !tbaa !25
  call void @llvm.lifetime.start.p0(i64 8, ptr %13) #14
  store double 0x4038D76C6C8C38D3, ptr %13, align 8, !tbaa !25
  call void @llvm.lifetime.start.p0(i64 8, ptr %14) #14
  store double 0x4016F55AF73548B8, ptr %14, align 8, !tbaa !25
  call void @llvm.lifetime.start.p0(i64 8, ptr %15) #14
  store double 0x3FEFD3B7B51209EA, ptr %15, align 8, !tbaa !25
  call void @llvm.lifetime.start.p0(i64 8, ptr %16) #14
  store double 0x3FC1B251FAD369CD, ptr %16, align 8, !tbaa !25
  call void @llvm.lifetime.start.p0(i64 4, ptr %17) #14
  store i32 0, ptr %17, align 4, !tbaa !8
  call void @llvm.lifetime.start.p0(i64 8, ptr %18) #14
  %27 = load ptr, ptr %4, align 8, !tbaa !23
  store ptr %27, ptr %18, align 8, !tbaa !47
  call void @llvm.lifetime.start.p0(i64 8, ptr %19) #14
  store double 0xC0A03EE211C0456F, ptr %19, align 8, !tbaa !25
  call void @llvm.lifetime.start.p0(i64 8, ptr %20) #14
  store double 0x40A03EE211C0456F, ptr %20, align 8, !tbaa !25
  br label %28

28:                                               ; preds = %93, %26
  %29 = load i32, ptr %17, align 4, !tbaa !8
  %30 = load i32, ptr %6, align 4, !tbaa !8
  %31 = icmp slt i32 %29, %30
  br i1 %31, label %32, label %109

32:                                               ; preds = %28
  call void @llvm.lifetime.start.p0(i64 8, ptr %21) #14
  %33 = load ptr, ptr %18, align 8, !tbaa !47
  %34 = load i32, ptr %17, align 4, !tbaa !8
  %35 = sext i32 %34 to i64
  %36 = getelementptr inbounds %union.Cv64suf, ptr %33, i64 %35
  %37 = load double, ptr %36, align 8, !tbaa !45
  store double %37, ptr %21, align 8, !tbaa !25
  %38 = invoke noundef nonnull align 8 dereferenceable(8) ptr @_ZSt3maxIdERKT_S2_S2_(ptr noundef nonnull align 8 dereferenceable(8) %21, ptr noundef nonnull align 8 dereferenceable(8) %19)
          to label %39 unwind label %100

39:                                               ; preds = %32
  %40 = invoke noundef nonnull align 8 dereferenceable(8) ptr @_ZSt3minIdERKT_S2_S2_(ptr noundef nonnull align 8 dereferenceable(8) %38, ptr noundef nonnull align 8 dereferenceable(8) %20)
          to label %41 unwind label %100

41:                                               ; preds = %39
  %42 = load double, ptr %40, align 8, !tbaa !25
  store double %42, ptr %21, align 8, !tbaa !25
  %43 = load double, ptr %21, align 8, !tbaa !25
  %44 = fmul double %43, 0x40571547652B82FE
  store double %44, ptr %21, align 8, !tbaa !25
  call void @llvm.lifetime.start.p0(i64 8, ptr %22) #14
  call void @llvm.lifetime.start.p0(i64 4, ptr %23) #14
  %45 = load double, ptr %21, align 8, !tbaa !25
  %46 = invoke noundef i32 @_ZN2cvL13saturate_castIiEET_d(double noundef %45)
          to label %47 unwind label %104

47:                                               ; preds = %41
  store i32 %46, ptr %23, align 4, !tbaa !8
  %48 = load double, ptr %21, align 8, !tbaa !25
  %49 = load i32, ptr %23, align 4, !tbaa !8
  %50 = sitofp i32 %49 to double
  %51 = fsub double %48, %50
  %52 = fmul double %51, 1.562500e-02
  store double %52, ptr %21, align 8, !tbaa !25
  call void @llvm.lifetime.start.p0(i64 4, ptr %24) #14
  %53 = load i32, ptr %23, align 4, !tbaa !8
  %54 = ashr i32 %53, 6
  %55 = add nsw i32 %54, 1023
  store i32 %55, ptr %24, align 4, !tbaa !8
  %56 = load i32, ptr %24, align 4, !tbaa !8
  %57 = and i32 %56, -2048
  %58 = icmp ne i32 %57, 0
  br i1 %58, label %61, label %59

59:                                               ; preds = %47
  %60 = load i32, ptr %24, align 4, !tbaa !8
  br label %65

61:                                               ; preds = %47
  %62 = load i32, ptr %24, align 4, !tbaa !8
  %63 = icmp slt i32 %62, 0
  %64 = select i1 %63, i32 0, i32 2047
  br label %65

65:                                               ; preds = %61, %59
  %66 = phi i32 [ %60, %59 ], [ %64, %61 ]
  store i32 %66, ptr %24, align 4, !tbaa !8
  %67 = load i32, ptr %24, align 4, !tbaa !8
  %68 = sext i32 %67 to i64
  %69 = shl i64 %68, 52
  store i64 %69, ptr %22, align 8, !tbaa !45
  %70 = load double, ptr %22, align 8, !tbaa !45
  %71 = load ptr, ptr %8, align 8, !tbaa !23
  %72 = load i32, ptr %23, align 4, !tbaa !8
  %73 = and i32 %72, 63
  %74 = sext i32 %73 to i64
  %75 = getelementptr inbounds double, ptr %71, i64 %74
  %76 = load double, ptr %75, align 8, !tbaa !25
  %77 = fmul double %70, %76
  %78 = load double, ptr %21, align 8, !tbaa !25
  %79 = call double @llvm.fmuladd.f64(double 0x3FC1B251FAD369CD, double %78, double 0x3FEFD3B7B51209EA)
  %80 = load double, ptr %21, align 8, !tbaa !25
  %81 = call double @llvm.fmuladd.f64(double %79, double %80, double 0x4016F55AF73548B8)
  %82 = load double, ptr %21, align 8, !tbaa !25
  %83 = call double @llvm.fmuladd.f64(double %81, double %82, double 0x4038D76C6C8C38D3)
  %84 = load double, ptr %21, align 8, !tbaa !25
  %85 = call double @llvm.fmuladd.f64(double %83, double %84, double 0x4051EB5AB9AE5E70)
  %86 = load double, ptr %21, align 8, !tbaa !25
  %87 = call double @llvm.fmuladd.f64(double %85, double %86, double 0x4059DA2747AF5C7E)
  %88 = fmul double %77, %87
  %89 = load ptr, ptr %5, align 8, !tbaa !23
  %90 = load i32, ptr %17, align 4, !tbaa !8
  %91 = sext i32 %90 to i64
  %92 = getelementptr inbounds double, ptr %89, i64 %91
  store double %88, ptr %92, align 8, !tbaa !25
  call void @llvm.lifetime.end.p0(i64 4, ptr %24) #14
  call void @llvm.lifetime.end.p0(i64 4, ptr %23) #14
  call void @llvm.lifetime.end.p0(i64 8, ptr %22) #14
  call void @llvm.lifetime.end.p0(i64 8, ptr %21) #14
  br label %93

93:                                               ; preds = %65
  %94 = load i32, ptr %17, align 4, !tbaa !8
  %95 = add nsw i32 %94, 1
  store i32 %95, ptr %17, align 4, !tbaa !8
  br label %28, !llvm.loop !49

96:                                               ; preds = %3
  %97 = landingpad { ptr, i32 }
          cleanup
  %98 = extractvalue { ptr, i32 } %97, 0
  store ptr %98, ptr %9, align 8
  %99 = extractvalue { ptr, i32 } %97, 1
  store i32 %99, ptr %10, align 4
  br label %110

100:                                              ; preds = %39, %32
  %101 = landingpad { ptr, i32 }
          cleanup
  %102 = extractvalue { ptr, i32 } %101, 0
  store ptr %102, ptr %9, align 8
  %103 = extractvalue { ptr, i32 } %101, 1
  store i32 %103, ptr %10, align 4
  br label %108

104:                                              ; preds = %41
  %105 = landingpad { ptr, i32 }
          cleanup
  %106 = extractvalue { ptr, i32 } %105, 0
  store ptr %106, ptr %9, align 8
  %107 = extractvalue { ptr, i32 } %105, 1
  store i32 %107, ptr %10, align 4
  call void @llvm.lifetime.end.p0(i64 4, ptr %23) #14
  call void @llvm.lifetime.end.p0(i64 8, ptr %22) #14
  br label %108

108:                                              ; preds = %104, %100
  call void @llvm.lifetime.end.p0(i64 8, ptr %21) #14
  call void @llvm.lifetime.end.p0(i64 8, ptr %20) #14
  call void @llvm.lifetime.end.p0(i64 8, ptr %19) #14
  call void @llvm.lifetime.end.p0(i64 8, ptr %18) #14
  call void @llvm.lifetime.end.p0(i64 4, ptr %17) #14
  call void @llvm.lifetime.end.p0(i64 8, ptr %16) #14
  call void @llvm.lifetime.end.p0(i64 8, ptr %15) #14
  call void @llvm.lifetime.end.p0(i64 8, ptr %14) #14
  call void @llvm.lifetime.end.p0(i64 8, ptr %13) #14
  call void @llvm.lifetime.end.p0(i64 8, ptr %12) #14
  call void @llvm.lifetime.end.p0(i64 8, ptr %11) #14
  br label %110

109:                                              ; preds = %28
  call void @llvm.lifetime.end.p0(i64 8, ptr %20) #14
  call void @llvm.lifetime.end.p0(i64 8, ptr %19) #14
  call void @llvm.lifetime.end.p0(i64 8, ptr %18) #14
  call void @llvm.lifetime.end.p0(i64 4, ptr %17) #14
  call void @llvm.lifetime.end.p0(i64 8, ptr %16) #14
  call void @llvm.lifetime.end.p0(i64 8, ptr %15) #14
  call void @llvm.lifetime.end.p0(i64 8, ptr %14) #14
  call void @llvm.lifetime.end.p0(i64 8, ptr %13) #14
  call void @llvm.lifetime.end.p0(i64 8, ptr %12) #14
  call void @llvm.lifetime.end.p0(i64 8, ptr %11) #14
  call void @llvm.lifetime.end.p0(i64 8, ptr %8) #14
  call void @_ZN2cv5utils5trace7details6RegionD2Ev(ptr noundef nonnull align 8 dereferenceable(12) %7) #14
  call void @llvm.lifetime.end.p0(i64 16, ptr %7) #14
  ret void

110:                                              ; preds = %108, %96
  call void @llvm.lifetime.end.p0(i64 8, ptr %8) #14
  call void @_ZN2cv5utils5trace7details6RegionD2Ev(ptr noundef nonnull align 8 dereferenceable(12) %7) #14
  call void @llvm.lifetime.end.p0(i64 16, ptr %7) #14
  br label %111

111:                                              ; preds = %110
  %112 = load ptr, ptr %9, align 8
  %113 = load i32, ptr %10, align 4
  %114 = insertvalue { ptr, i32 } poison, ptr %112, 0
  %115 = insertvalue { ptr, i32 } %114, i32 %113, 1
  resume { ptr, i32 } %115
}