; Function Attrs: mustprogress uwtable
define hidden void @_ZN2cv3hal12cpu_baseline6exp64fEPKdPdi(ptr noundef readonly captures(none) %0, ptr noundef writeonly captures(none) %1, i32 noundef %2) local_unnamed_addr #6 personality ptr @__gxx_personality_v0 {
  %4 = alloca %"class.cv::utils::trace::details::Region", align 8
  call void @llvm.lifetime.start.p0(i64 16, ptr nonnull %4) #12
  call void @_ZN2cv5utils5trace7details6RegionC1ERKNS3_21LocationStaticStorageE(ptr noundef nonnull align 8 dereferenceable(12) %4, ptr noundef nonnull align 8 dereferenceable(32) @_ZZN2cv3hal12cpu_baseline6exp64fEPKdPdiE25__cv_trace_location_fn627)
  %5 = invoke noundef ptr @_ZN2cv7details12getExpTab64fEv()
          to label %.preheader unwind label %37

.preheader:                                       ; preds = %3
  %6 = icmp sgt i32 %2, 0
  br i1 %6, label %.lr.ph.preheader, label %._crit_edge

.lr.ph.preheader:                                 ; preds = %.preheader
  %wide.trip.count = zext nneg i32 %2 to i64
  br label %.lr.ph

.lr.ph:                                           ; preds = %.lr.ph.preheader, %.lr.ph
  %indvars.iv = phi i64 [ 0, %.lr.ph.preheader ], [ %indvars.iv.next, %.lr.ph ]
  %7 = getelementptr inbounds nuw %union.Cv64suf, ptr %0, i64 %indvars.iv
  %8 = load double, ptr %7, align 8, !tbaa !31
  %9 = fcmp olt double %8, 0xC0A03EE211C0456F
  %.sroa.speculated24 = select i1 %9, double 0xC0A03EE211C0456F, double %8
  %10 = fcmp ogt double %.sroa.speculated24, 0x40A03EE211C0456F
  %.sroa.speculated = select i1 %10, double 0x40A03EE211C0456F, double %.sroa.speculated24
  %11 = fmul double %.sroa.speculated, 0x40571547652B82FE
  %12 = insertelement <2 x double> poison, double %11, i64 0
  %13 = call noundef i32 @llvm.x86.sse2.cvtsd2si(<2 x double> %12)
  %14 = sitofp i32 %13 to double
  %15 = fsub double %11, %14
  %16 = fmul double %15, 1.562500e-02
  %17 = ashr i32 %13, 6
  %18 = add nsw i32 %17, 1023
  %.not = icmp ult i32 %18, 2048
  %19 = icmp slt i32 %17, -1023
  %20 = select i1 %19, i32 0, i32 2047
  %21 = select i1 %.not, i32 %18, i32 %20
  %22 = zext nneg i32 %21 to i64
  %23 = shl nuw nsw i64 %22, 52
  %24 = bitcast i64 %23 to double
  %25 = and i32 %13, 63
  %26 = zext nneg i32 %25 to i64
  %27 = getelementptr inbounds nuw double, ptr %5, i64 %26
  %28 = load double, ptr %27, align 8, !tbaa !14
  %29 = fmul double %28, %24
  %30 = call double @llvm.fmuladd.f64(double %16, double 0x3FC1B251FAD369CD, double 0x3FEFD3B7B51209EA)
  %31 = call double @llvm.fmuladd.f64(double %30, double %16, double 0x4016F55AF73548B8)
  %32 = call double @llvm.fmuladd.f64(double %31, double %16, double 0x4038D76C6C8C38D3)
  %33 = call double @llvm.fmuladd.f64(double %32, double %16, double 0x4051EB5AB9AE5E70)
  %34 = call double @llvm.fmuladd.f64(double %33, double %16, double 0x4059DA2747AF5C7E)
  %35 = fmul double %29, %34
  %36 = getelementptr inbounds nuw double, ptr %1, i64 %indvars.iv
  store double %35, ptr %36, align 8, !tbaa !14
  %indvars.iv.next = add nuw nsw i64 %indvars.iv, 1
  %exitcond.not = icmp eq i64 %indvars.iv.next, %wide.trip.count
  br i1 %exitcond.not, label %._crit_edge, label %.lr.ph, !llvm.loop !33

37:                                               ; preds = %3
  %38 = landingpad { ptr, i32 }
          cleanup
  call void @_ZN2cv5utils5trace7details6RegionD2Ev(ptr noundef nonnull align 8 dereferenceable(12) %4) #12
  call void @llvm.lifetime.end.p0(i64 16, ptr nonnull %4) #12
  resume { ptr, i32 } %38

._crit_edge:                                      ; preds = %.lr.ph, %.preheader
  %39 = getelementptr inbounds nuw i8, ptr %4, i64 8
  %40 = load i32, ptr %39, align 8, !tbaa !9
  %.not.i = icmp eq i32 %40, 0
  br i1 %.not.i, label %_ZN2cv5utils5trace7details6RegionD2Ev.exit, label %41

41:                                               ; preds = %._crit_edge
  invoke void @_ZN2cv5utils5trace7details6Region7destroyEv(ptr noundef nonnull align 8 dereferenceable(12) %4)
          to label %_ZN2cv5utils5trace7details6RegionD2Ev.exit unwind label %42

42:                                               ; preds = %41
  %43 = landingpad { ptr, i32 }
          catch ptr null
  %44 = extractvalue { ptr, i32 } %43, 0
  call void @__clang_call_terminate(ptr %44) #13
  unreachable

_ZN2cv5utils5trace7details6RegionD2Ev.exit:       ; preds = %._crit_edge, %41
  call void @llvm.lifetime.end.p0(i64 16, ptr nonnull %4) #12
  ret void
}